(lp0
(I0
(lp1
F0.0
aF0.0
aF0.0
aF0.0
aF0.0
atp2
a(I5
(lp3
F0.8447684391080618
aF0.8513436249285306
aF0.8430531732418525
aF0.8401943967981704
aF0.8064608347627216
atp4
a(I10
(lp5
F0.900800457404231
aF0.8873642081189251
aF0.8979416809605489
aF0.8799313893653516
aF0.9013722126929674
atp6
a(I15
(lp7
F0.9042309891366496
aF0.8925100057175529
aF0.906232132647227
aF0.8990851915380217
aF0.902229845626072
atp8
a(I20
(lp9
F0.9039451114922813
aF0.9053744997141223
aF0.9059462550028587
aF0.8910806174957119
aF0.9030874785591767
atp10
a(I25
(lp11
F0.8970840480274442
aF0.8982275586049171
aF0.8879359634076616
aF0.9028016009148084
aF0.9068038879359634
atp12
a(I30
(lp13
F0.8982275586049171
aF0.9068038879359634
aF0.906232132647227
aF0.902229845626072
aF0.9039451114922813
atp14
a(I35
(lp15
F0.8985134362492853
aF0.9048027444253859
aF0.9019439679817038
aF0.9033733562035449
aF0.9059462550028587
atp16
a(I40
(lp17
F0.8893653516295026
aF0.906232132647227
aF0.9028016009148084
aF0.902229845626072
aF0.9002287021154946
atp18
a.