(lp0
(I0
(lp1
F0.0
aF0.0
aF0.0
aF0.0
aF0.0
atp2
a(I5
(lp3
F0.8476272155517438
aF0.841052029731275
aF0.8407661520869067
aF0.8313321898227558
aF0.8704974271012007
atp4
a(I10
(lp5
F0.9262435677530018
aF0.8805031446540881
aF0.8887935963407662
aF0.8953687821612349
aF0.8833619210977701
atp6
a(I15
(lp7
F0.9085191538021726
aF0.889937106918239
aF0.9028016009148084
aF0.8970840480274442
aF0.8887935963407662
atp8
a(I20
(lp9
F0.8950829045168668
aF0.9019439679817038
aF0.9053744997141223
aF0.9419668381932533
aF0.9050886220697542
atp10
a(I25
(lp11
F0.9053744997141223
aF0.9050886220697542
aF0.9030874785591767
aF0.9036592338479131
aF0.906232132647227
atp12
a(I30
(lp13
F0.9033733562035449
aF0.9082332761578045
aF0.9016580903373356
aF0.8893653516295026
aF0.9073756432246999
atp14
a(I35
(lp15
F0.9030874785591767
aF0.8850771869639794
aF0.89937106918239
aF0.9036592338479131
aF0.9039451114922813
atp16
a(I40
(lp17
F0.8999428244711264
aF0.9036592338479131
aF0.8910806174957119
aF0.906232132647227
aF0.9002287021154946
atp18
a.